; Function Attrs: mustprogress nofree norecurse nounwind willreturn uwtable
define void @_ZN5arrow7compute8internal8LastTypeEPNS0_13KernelContextERKSt6vectorINS_10TypeHolderESaIS5_EE(ptr noalias writeonly sret(%"class.arrow::Result") align 8 captures(none) initializes((0, 32)) %agg.result, ptr noundef readnone captures(none) %0, ptr noundef nonnull readonly align 8 captures(none) dereferenceable(24) %types) local_unnamed_addr #6 personality ptr @__gxx_personality_v0 {
entry:
  %_M_finish.i.i = getelementptr inbounds nuw i8, ptr %types, i64 8
  %1 = load ptr, ptr %_M_finish.i.i, align 8
  %add.ptr.i.i = getelementptr inbounds i8, ptr %1, i64 -24
  store ptr null, ptr %agg.result, align 8
  %storage_.i.i = getelementptr inbounds nuw i8, ptr %agg.result, i64 8
  %2 = load ptr, ptr %add.ptr.i.i, align 8
  store ptr %2, ptr %storage_.i.i, align 8
  %owned_type.i.i.i.i = getelementptr inbounds nuw i8, ptr %agg.result, i64 16
  %owned_type3.i.i.i.i = getelementptr inbounds i8, ptr %1, i64 -16
  %3 = load ptr, ptr %owned_type3.i.i.i.i, align 8
  store ptr %3, ptr %owned_type.i.i.i.i, align 8
  %_M_refcount.i.i.i.i.i.i = getelementptr inbounds nuw i8, ptr %agg.result, i64 24
  %_M_refcount3.i.i.i.i.i.i = getelementptr inbounds i8, ptr %1, i64 -8
  %4 = load ptr, ptr %_M_refcount3.i.i.i.i.i.i, align 8
  store ptr %4, ptr %_M_refcount.i.i.i.i.i.i, align 8
  %cmp.not.i.i.i.i.i.i.i = icmp eq ptr %4, null
  br i1 %cmp.not.i.i.i.i.i.i.i, label %_ZN5arrow6ResultINS_10TypeHolderEEC2IRKS1_vEEOT_.exit, label %if.then.i.i.i.i.i.i.i

if.then.i.i.i.i.i.i.i:                            ; preds = %entry
  %_M_use_count.i.i.i.i.i.i.i.i = getelementptr inbounds nuw i8, ptr %4, i64 8
  %5 = load i8, ptr @__libc_single_threaded, align 1
  %tobool.i.not.i.i.i.i.i.i.i.i = icmp eq i8 %5, 0
  br i1 %tobool.i.not.i.i.i.i.i.i.i.i, label %if.else.i.i.i.i.i.i.i.i.i, label %if.then.i.i.i.i.i.i.i.i.i

if.then.i.i.i.i.i.i.i.i.i:                        ; preds = %if.then.i.i.i.i.i.i.i
  %6 = load i32, ptr %_M_use_count.i.i.i.i.i.i.i.i, align 4
  %add.i.i.i.i.i.i.i.i.i = add nsw i32 %6, 1
  store i32 %add.i.i.i.i.i.i.i.i.i, ptr %_M_use_count.i.i.i.i.i.i.i.i, align 4
  br label %_ZN5arrow6ResultINS_10TypeHolderEEC2IRKS1_vEEOT_.exit

if.else.i.i.i.i.i.i.i.i.i:                        ; preds = %if.then.i.i.i.i.i.i.i
  %7 = atomicrmw volatile add ptr %_M_use_count.i.i.i.i.i.i.i.i, i32 1 acq_rel, align 4
  br label %_ZN5arrow6ResultINS_10TypeHolderEEC2IRKS1_vEEOT_.exit

_ZN5arrow6ResultINS_10TypeHolderEEC2IRKS1_vEEOT_.exit: ; preds = %entry, %if.then.i.i.i.i.i.i.i.i.i, %if.else.i.i.i.i.i.i.i.i.i
  ret void
}